; ModuleID = 'source-C-CXX/36/1810.c'
source_filename = "source-C-CXX/36/1810.c"
target datalayout = "e-m:e-p270:32:32-p271:32:32-p272:64:64-i64:64-f80:128-n8:16:32:64-S128"
target triple = "x86_64-pc-linux-gnu"

@.str = private unnamed_addr constant [3 x i8] c"%d\00", align 1
@.str.1 = private unnamed_addr constant [3 x i8] c"%s\00", align 1
@.str.2 = private unnamed_addr constant [4 x i8] c"%c\0A\00", align 1
@str = private unnamed_addr constant [3 x i8] c"no\00", align 1

; Function Attrs: nofree nounwind sspstrong uwtable
define dso_local i32 @main() local_unnamed_addr #0 {
  %1 = alloca i32, align 4
  %2 = alloca [100000 x i32], align 16
  %3 = alloca [100000 x i8], align 16
  %4 = bitcast i32* %1 to i8*
  call void @llvm.lifetime.start.p0i8(i64 4, i8* nonnull %4) #6
  %5 = bitcast [100000 x i32]* %2 to i8*
  call void @llvm.lifetime.start.p0i8(i64 400000, i8* nonnull %5) #6
  %6 = getelementptr inbounds [100000 x i8], [100000 x i8]* %3, i64 0, i64 0
  call void @llvm.lifetime.start.p0i8(i64 100000, i8* nonnull %6) #6
  %7 = call i32 (i8*, ...) @__isoc99_scanf(i8* getelementptr inbounds ([3 x i8], [3 x i8]* @.str, i64 0, i64 0), i32* nonnull %1)
  %8 = load i32, i32* %1, align 4, !tbaa !5
  %9 = icmp slt i32 %8, 1
  br i1 %9, label %65, label %10

10:                                               ; preds = %0, %61
  %11 = phi i32 [ %62, %61 ], [ 1, %0 ]
  %12 = call i32 (i8*, ...) @__isoc99_scanf(i8* getelementptr inbounds ([3 x i8], [3 x i8]* @.str.1, i64 0, i64 0), i8* nonnull %6)
  %13 = call i64 @strlen(i8* noundef nonnull %6) #7
  %14 = trunc i64 %13 to i32
  call void @llvm.memset.p0i8.i64(i8* noundef nonnull align 16 dereferenceable(400000) %5, i8 0, i64 400000, i1 false)
  %15 = icmp sgt i32 %14, 1
  br i1 %15, label %16, label %18

16:                                               ; preds = %10
  %17 = and i64 %13, 4294967295
  br label %22

18:                                               ; preds = %42, %10
  %19 = icmp sgt i32 %14, 0
  br i1 %19, label %20, label %59

20:                                               ; preds = %18
  %21 = and i64 %13, 4294967295
  br label %45

22:                                               ; preds = %16, %42
  %23 = phi i64 [ 1, %16 ], [ %43, %42 ]
  %24 = getelementptr inbounds [100000 x i8], [100000 x i8]* %3, i64 0, i64 %23
  %25 = load i8, i8* %24, align 1, !tbaa !9
  br label %26

26:                                               ; preds = %22, %39
  %27 = phi i64 [ 0, %22 ], [ %40, %39 ]
  %28 = getelementptr inbounds [100000 x i8], [100000 x i8]* %3, i64 0, i64 %27
  %29 = load i8, i8* %28, align 1, !tbaa !9
  %30 = icmp eq i8 %25, %29
  br i1 %30, label %31, label %39

31:                                               ; preds = %26
  %32 = and i64 %27, 4294967295
  %33 = getelementptr inbounds [100000 x i32], [100000 x i32]* %2, i64 0, i64 %32
  %34 = load i32, i32* %33, align 4, !tbaa !5
  %35 = add nsw i32 %34, 1
  store i32 %35, i32* %33, align 4, !tbaa !5
  %36 = getelementptr inbounds [100000 x i32], [100000 x i32]* %2, i64 0, i64 %23
  %37 = load i32, i32* %36, align 4, !tbaa !5
  %38 = add nsw i32 %37, 1
  store i32 %38, i32* %36, align 4, !tbaa !5
  br label %42

39:                                               ; preds = %26
  %40 = add nuw nsw i64 %27, 1
  %41 = icmp eq i64 %40, %23
  br i1 %41, label %42, label %26, !llvm.loop !10

42:                                               ; preds = %39, %31
  %43 = add nuw nsw i64 %23, 1
  %44 = icmp eq i64 %43, %17
  br i1 %44, label %18, label %22, !llvm.loop !12

45:                                               ; preds = %20, %56
  %46 = phi i64 [ 0, %20 ], [ %57, %56 ]
  %47 = getelementptr inbounds [100000 x i32], [100000 x i32]* %2, i64 0, i64 %46
  %48 = load i32, i32* %47, align 4, !tbaa !5
  %49 = icmp eq i32 %48, 0
  br i1 %49, label %50, label %56

50:                                               ; preds = %45
  %51 = and i64 %46, 4294967295
  %52 = getelementptr inbounds [100000 x i8], [100000 x i8]* %3, i64 0, i64 %51
  %53 = load i8, i8* %52, align 1, !tbaa !9
  %54 = sext i8 %53 to i32
  %55 = call i32 (i8*, ...) @printf(i8* nonnull dereferenceable(1) getelementptr inbounds ([4 x i8], [4 x i8]* @.str.2, i64 0, i64 0), i32 %54)
  br label %61

56:                                               ; preds = %45
  %57 = add nuw nsw i64 %46, 1
  %58 = icmp eq i64 %57, %21
  br i1 %58, label %59, label %45, !llvm.loop !13

59:                                               ; preds = %56, %18
  %60 = call i32 @puts(i8* nonnull dereferenceable(1) getelementptr inbounds ([3 x i8], [3 x i8]* @str, i64 0, i64 0))
  br label %61

61:                                               ; preds = %50, %59
  %62 = add nuw nsw i32 %11, 1
  %63 = load i32, i32* %1, align 4, !tbaa !5
  %64 = icmp slt i32 %11, %63
  br i1 %64, label %10, label %65, !llvm.loop !14

65:                                               ; preds = %61, %0
  call void @llvm.lifetime.end.p0i8(i64 100000, i8* nonnull %6) #6
  call void @llvm.lifetime.end.p0i8(i64 400000, i8* nonnull %5) #6
  call void @llvm.lifetime.end.p0i8(i64 4, i8* nonnull %4) #6
  ret i32 0
}

; Function Attrs: argmemonly mustprogress nofree nosync nounwind willreturn
declare void @llvm.lifetime.start.p0i8(i64 immarg, i8* nocapture) #1

; Function Attrs: nofree nounwind
declare noundef i32 @__isoc99_scanf(i8* nocapture noundef readonly, ...) local_unnamed_addr #2

; Function Attrs: argmemonly mustprogress nofree nounwind readonly willreturn
declare i64 @strlen(i8* nocapture) local_unnamed_addr #3

; Function Attrs: argmemonly mustprogress nofree nounwind willreturn writeonly
declare void @llvm.memset.p0i8.i64(i8* nocapture writeonly, i8, i64, i1 immarg) #4

; Function Attrs: nofree nounwind
declare noundef i32 @printf(i8* nocapture noundef readonly, ...) local_unnamed_addr #2

; Function Attrs: argmemonly mustprogress nofree nosync nounwind willreturn
declare void @llvm.lifetime.end.p0i8(i64 immarg, i8* nocapture) #1

; Function Attrs: nofree nounwind
declare noundef i32 @puts(i8* nocapture noundef readonly) local_unnamed_addr #5


!llvm.module.flags = !{!0, !1, !2, !3}
!llvm.ident = !{!4}

!0 = !{i32 1, !"wchar_size", i32 4}
!1 = !{i32 7, !"PIC Level", i32 2}
!2 = !{i32 7, !"PIE Level", i32 2}
!3 = !{i32 7, !"uwtable", i32 1}
!4 = !{!"clang version 13.0.0"}
!5 = !{!6, !6, i64 0}
!6 = !{!"int", !7, i64 0}
!7 = !{!"omnipotent char", !8, i64 0}
!8 = !{!"Simple C/C++ TBAA"}
!9 = !{!7, !7, i64 0}
!10 = distinct !{!10, !11}
!11 = !{!"llvm.loop.mustprogress"}
!12 = distinct !{!12, !11}
!13 = distinct !{!13, !11}
!14 = distinct !{!14, !11}
